target datalayout = "e-m:e-p270:32:32-p271:32:32-p272:64:64-i64:64-i128:128-f80:128-n8:16:32:64-S128"
target triple = "x86_64-pc-linux-gnu"

%struct.fdt_header = type { i32, i32, i32, i32, i32, i32, i32, i32, i32, i32 }
%struct.fdt_property = type { i32, i32, i32, [0 x i8] }

@.str.2 = private unnamed_addr constant [9 x i8] c"/aliases\00", align 1

; Function Attrs: inlinehint nounwind uwtable
define internal i32 @fdt32_ld(ptr noundef %0) #3 {
  %2 = alloca ptr, align 8
  %3 = alloca ptr, align 8
  store ptr %0, ptr %2, align 8, !tbaa !9
  call void @llvm.lifetime.start.p0(i64 8, ptr %3) #6
  %4 = load ptr, ptr %2, align 8, !tbaa !9
  store ptr %4, ptr %3, align 8, !tbaa !13
  %5 = load ptr, ptr %3, align 8, !tbaa !13
  %6 = getelementptr inbounds i8, ptr %5, i64 0
  %7 = load i8, ptr %6, align 1, !tbaa !15
  %8 = zext i8 %7 to i32
  %9 = shl i32 %8, 24
  %10 = load ptr, ptr %3, align 8, !tbaa !13
  %11 = getelementptr inbounds i8, ptr %10, i64 1
  %12 = load i8, ptr %11, align 1, !tbaa !15
  %13 = zext i8 %12 to i32
  %14 = shl i32 %13, 16
  %15 = or i32 %9, %14
  %16 = load ptr, ptr %3, align 8, !tbaa !13
  %17 = getelementptr inbounds i8, ptr %16, i64 2
  %18 = load i8, ptr %17, align 1, !tbaa !15
  %19 = zext i8 %18 to i32
  %20 = shl i32 %19, 8
  %21 = or i32 %15, %20
  %22 = load ptr, ptr %3, align 8, !tbaa !13
  %23 = getelementptr inbounds i8, ptr %22, i64 3
  %24 = load i8, ptr %23, align 1, !tbaa !15
  %25 = zext i8 %24 to i32
  %26 = or i32 %21, %25
  call void @llvm.lifetime.end.p0(i64 8, ptr %3) #6
  ret i32 %26
}

; Function Attrs: nounwind uwtable
define ptr @fdt_getprop_namelen(ptr noundef %0, i32 noundef %1, ptr noundef %2, i32 noundef %3, ptr noundef %4) #0 {
  %6 = alloca ptr, align 8
  %7 = alloca ptr, align 8
  %8 = alloca i32, align 4
  %9 = alloca ptr, align 8
  %10 = alloca i32, align 4
  %11 = alloca ptr, align 8
  %12 = alloca i32, align 4
  %13 = alloca ptr, align 8
  %14 = alloca i32, align 4
  store ptr %0, ptr %7, align 8, !tbaa !3
  store i32 %1, ptr %8, align 4, !tbaa !7
  store ptr %2, ptr %9, align 8, !tbaa !13
  store i32 %3, ptr %10, align 4, !tbaa !7
  store ptr %4, ptr %11, align 8, !tbaa !9
  call void @llvm.lifetime.start.p0(i64 4, ptr %12) #6
  call void @llvm.lifetime.start.p0(i64 8, ptr %13) #6
  %15 = load ptr, ptr %7, align 8, !tbaa !3
  %16 = load i32, ptr %8, align 4, !tbaa !7
  %17 = load ptr, ptr %9, align 8, !tbaa !13
  %18 = load i32, ptr %10, align 4, !tbaa !7
  %19 = load ptr, ptr %11, align 8, !tbaa !9
  %20 = call ptr @fdt_get_property_namelen_(ptr noundef %15, i32 noundef %16, ptr noundef %17, i32 noundef %18, ptr noundef %19, ptr noundef %12)
  store ptr %20, ptr %13, align 8, !tbaa !28
  %21 = load ptr, ptr %13, align 8, !tbaa !28
  %22 = icmp ne ptr %21, null
  br i1 %22, label %24, label %23

23:                                               ; preds = %5
  store ptr null, ptr %6, align 8
  store i32 1, ptr %14, align 4
  br label %49

24:                                               ; preds = %5
  %25 = load ptr, ptr %7, align 8, !tbaa !3
  %26 = getelementptr inbounds nuw %struct.fdt_header, ptr %25, i32 0, i32 5
  %27 = call i32 @fdt32_ld(ptr noundef %26)
  %28 = icmp ult i32 %27, 16
  br i1 %28, label %29, label %45

29:                                               ; preds = %24
  %30 = load i32, ptr %12, align 4, !tbaa !7
  %31 = sext i32 %30 to i64
  %32 = add i64 %31, 12
  %33 = urem i64 %32, 8
  %34 = icmp ne i64 %33, 0
  br i1 %34, label %35, label %45

35:                                               ; preds = %29
  %36 = load ptr, ptr %13, align 8, !tbaa !28
  %37 = getelementptr inbounds nuw %struct.fdt_property, ptr %36, i32 0, i32 1
  %38 = call i32 @fdt32_ld(ptr noundef %37)
  %39 = icmp uge i32 %38, 8
  br i1 %39, label %40, label %45

40:                                               ; preds = %35
  %41 = load ptr, ptr %13, align 8, !tbaa !28
  %42 = getelementptr inbounds nuw %struct.fdt_property, ptr %41, i32 0, i32 3
  %43 = getelementptr inbounds [0 x i8], ptr %42, i64 0, i64 0
  %44 = getelementptr inbounds i8, ptr %43, i64 4
  store ptr %44, ptr %6, align 8
  store i32 1, ptr %14, align 4
  br label %49

45:                                               ; preds = %35, %29, %24
  %46 = load ptr, ptr %13, align 8, !tbaa !28
  %47 = getelementptr inbounds nuw %struct.fdt_property, ptr %46, i32 0, i32 3
  %48 = getelementptr inbounds [0 x i8], ptr %47, i64 0, i64 0
  store ptr %48, ptr %6, align 8
  store i32 1, ptr %14, align 4
  br label %49

49:                                               ; preds = %45, %40, %23
  call void @llvm.lifetime.end.p0(i64 8, ptr %13) #6
  call void @llvm.lifetime.end.p0(i64 4, ptr %12) #6
  %50 = load ptr, ptr %6, align 8
  ret ptr %50
}

; Function Attrs: nounwind uwtable
define i32 @fdt_path_offset(ptr noundef %0, ptr noundef %1) #0 {
  %3 = alloca ptr, align 8
  %4 = alloca ptr, align 8
  store ptr %0, ptr %3, align 8, !tbaa !3
  store ptr %1, ptr %4, align 8, !tbaa !13
  %5 = load ptr, ptr %3, align 8, !tbaa !3
  %6 = load ptr, ptr %4, align 8, !tbaa !13
  %7 = load ptr, ptr %4, align 8, !tbaa !13
  %8 = call i64 @strlen(ptr noundef %7) #7
  %9 = trunc i64 %8 to i32
  %10 = call i32 @fdt_path_offset_namelen(ptr noundef %5, ptr noundef %6, i32 noundef %9)
  ret i32 %10
}

; Function Attrs: nounwind uwtable
define ptr @fdt_get_alias_namelen(ptr noundef %0, ptr noundef %1, i32 noundef %2) #0 {
  %4 = alloca ptr, align 8
  %5 = alloca ptr, align 8
  %6 = alloca ptr, align 8
  %7 = alloca i32, align 4
  %8 = alloca i32, align 4
  %9 = alloca i32, align 4
  store ptr %0, ptr %5, align 8, !tbaa !3
  store ptr %1, ptr %6, align 8, !tbaa !13
  store i32 %2, ptr %7, align 4, !tbaa !7
  call void @llvm.lifetime.start.p0(i64 4, ptr %8) #6
  %10 = load ptr, ptr %5, align 8, !tbaa !3
  %11 = call i32 @fdt_path_offset(ptr noundef %10, ptr noundef @.str.2)
  store i32 %11, ptr %8, align 4, !tbaa !7
  %12 = load i32, ptr %8, align 4, !tbaa !7
  %13 = icmp slt i32 %12, 0
  br i1 %13, label %14, label %15

14:                                               ; preds = %3
  store ptr null, ptr %4, align 8
  store i32 1, ptr %9, align 4
  br label %21

15:                                               ; preds = %3
  %16 = load ptr, ptr %5, align 8, !tbaa !3
  %17 = load i32, ptr %8, align 4, !tbaa !7
  %18 = load ptr, ptr %6, align 8, !tbaa !13
  %19 = load i32, ptr %7, align 4, !tbaa !7
  %20 = call ptr @fdt_getprop_namelen(ptr noundef %16, i32 noundef %17, ptr noundef %18, i32 noundef %19, ptr noundef null)
  store ptr %20, ptr %4, align 8
  store i32 1, ptr %9, align 4
  br label %21

21:                                               ; preds = %15, %14
  call void @llvm.lifetime.end.p0(i64 4, ptr %8) #6
  %22 = load ptr, ptr %4, align 8
  ret ptr %22
}

; Function Attrs: nounwind uwtable
define i32 @fdt_path_offset_namelen(ptr noundef %0, ptr noundef %1, i32 noundef %2) #0 {
  %4 = alloca i32, align 4
  %5 = alloca ptr, align 8
  %6 = alloca ptr, align 8
  %7 = alloca i32, align 4
  %8 = alloca ptr, align 8
  %9 = alloca ptr, align 8
  %10 = alloca i32, align 4
  %11 = alloca i32, align 4
  %12 = alloca i32, align 4
  %13 = alloca ptr, align 8
  %14 = alloca ptr, align 8
  store ptr %0, ptr %5, align 8, !tbaa !3
  store ptr %1, ptr %6, align 8, !tbaa !13
  store i32 %2, ptr %7, align 4, !tbaa !7
  call void @llvm.lifetime.start.p0(i64 8, ptr %8) #6
  %15 = load ptr, ptr %6, align 8, !tbaa !13
  %16 = load i32, ptr %7, align 4, !tbaa !7
  %17 = sext i32 %16 to i64
  %18 = getelementptr inbounds i8, ptr %15, i64 %17
  store ptr %18, ptr %8, align 8, !tbaa !13
  call void @llvm.lifetime.start.p0(i64 8, ptr %9) #6
  %19 = load ptr, ptr %6, align 8, !tbaa !13
  store ptr %19, ptr %9, align 8, !tbaa !13
  call void @llvm.lifetime.start.p0(i64 4, ptr %10) #6
  store i32 0, ptr %10, align 4, !tbaa !7
  call void @llvm.lifetime.start.p0(i64 4, ptr %11) #6
  %20 = load ptr, ptr %5, align 8, !tbaa !3
  %21 = call i32 @fdt_ro_probe_(ptr noundef %20)
  store i32 %21, ptr %11, align 4, !tbaa !7
  %22 = icmp slt i32 %21, 0
  br i1 %22, label %23, label %25

23:                                               ; preds = %3
  %24 = load i32, ptr %11, align 4, !tbaa !7
  store i32 %24, ptr %4, align 4
  store i32 1, ptr %12, align 4
  br label %26

25:                                               ; preds = %3
  store i32 0, ptr %12, align 4
  br label %26

26:                                               ; preds = %25, %23
  call void @llvm.lifetime.end.p0(i64 4, ptr %11) #6
  %27 = load i32, ptr %12, align 4
  switch i32 %27, label %120 [
    i32 0, label %28
  ]

28:                                               ; preds = %26
  %29 = load ptr, ptr %6, align 8, !tbaa !13
  %30 = load i8, ptr %29, align 1, !tbaa !15
  %31 = sext i8 %30 to i32
  %32 = icmp ne i32 %31, 47
  br i1 %32, label %33, label %66

33:                                               ; preds = %28
  call void @llvm.lifetime.start.p0(i64 8, ptr %13) #6
  %34 = load ptr, ptr %6, align 8, !tbaa !13
  %35 = load ptr, ptr %8, align 8, !tbaa !13
  %36 = load ptr, ptr %9, align 8, !tbaa !13
  %37 = ptrtoint ptr %35 to i64
  %38 = ptrtoint ptr %36 to i64
  %39 = sub i64 %37, %38
  %40 = call ptr @memchr(ptr noundef %34, i32 noundef 47, i64 noundef %39) #7
  store ptr %40, ptr %13, align 8, !tbaa !13
  %41 = load ptr, ptr %13, align 8, !tbaa !13
  %42 = icmp ne ptr %41, null
  br i1 %42, label %45, label %43

43:                                               ; preds = %33
  %44 = load ptr, ptr %8, align 8, !tbaa !13
  store ptr %44, ptr %13, align 8, !tbaa !13
  br label %45

45:                                               ; preds = %43, %33
  %46 = load ptr, ptr %5, align 8, !tbaa !3
  %47 = load ptr, ptr %9, align 8, !tbaa !13
  %48 = load ptr, ptr %13, align 8, !tbaa !13
  %49 = load ptr, ptr %9, align 8, !tbaa !13
  %50 = ptrtoint ptr %48 to i64
  %51 = ptrtoint ptr %49 to i64
  %52 = sub i64 %50, %51
  %53 = trunc i64 %52 to i32
  %54 = call ptr @fdt_get_alias_namelen(ptr noundef %46, ptr noundef %47, i32 noundef %53)
  store ptr %54, ptr %9, align 8, !tbaa !13
  %55 = load ptr, ptr %9, align 8, !tbaa !13
  %56 = icmp ne ptr %55, null
  br i1 %56, label %58, label %57

57:                                               ; preds = %45
  store i32 -5, ptr %4, align 4
  store i32 1, ptr %12, align 4
  br label %63

58:                                               ; preds = %45
  %59 = load ptr, ptr %5, align 8, !tbaa !3
  %60 = load ptr, ptr %9, align 8, !tbaa !13
  %61 = call i32 @fdt_path_offset(ptr noundef %59, ptr noundef %60)
  store i32 %61, ptr %10, align 4, !tbaa !7
  %62 = load ptr, ptr %13, align 8, !tbaa !13
  store ptr %62, ptr %9, align 8, !tbaa !13
  store i32 0, ptr %12, align 4
  br label %63

63:                                               ; preds = %58, %57
  call void @llvm.lifetime.end.p0(i64 8, ptr %13) #6
  %64 = load i32, ptr %12, align 4
  switch i32 %64, label %120 [
    i32 0, label %65
  ]

65:                                               ; preds = %63
  br label %66

66:                                               ; preds = %65, %28
  br label %67

67:                                               ; preds = %117, %66
  %68 = load ptr, ptr %9, align 8, !tbaa !13
  %69 = load ptr, ptr %8, align 8, !tbaa !13
  %70 = icmp ult ptr %68, %69
  br i1 %70, label %71, label %118

71:                                               ; preds = %67
  call void @llvm.lifetime.start.p0(i64 8, ptr %14) #6
  br label %72

72:                                               ; preds = %85, %71
  %73 = load ptr, ptr %9, align 8, !tbaa !13
  %74 = load i8, ptr %73, align 1, !tbaa !15
  %75 = sext i8 %74 to i32
  %76 = icmp eq i32 %75, 47
  br i1 %76, label %77, label %86

77:                                               ; preds = %72
  %78 = load ptr, ptr %9, align 8, !tbaa !13
  %79 = getelementptr inbounds nuw i8, ptr %78, i32 1
  store ptr %79, ptr %9, align 8, !tbaa !13
  %80 = load ptr, ptr %9, align 8, !tbaa !13
  %81 = load ptr, ptr %8, align 8, !tbaa !13
  %82 = icmp eq ptr %80, %81
  br i1 %82, label %83, label %85

83:                                               ; preds = %77
  %84 = load i32, ptr %10, align 4, !tbaa !7
  store i32 %84, ptr %4, align 4
  store i32 1, ptr %12, align 4
  br label %115

85:                                               ; preds = %77
  br label %72, !llvm.loop !23

86:                                               ; preds = %72
  %87 = load ptr, ptr %9, align 8, !tbaa !13
  %88 = load ptr, ptr %8, align 8, !tbaa !13
  %89 = load ptr, ptr %9, align 8, !tbaa !13
  %90 = ptrtoint ptr %88 to i64
  %91 = ptrtoint ptr %89 to i64
  %92 = sub i64 %90, %91
  %93 = call ptr @memchr(ptr noundef %87, i32 noundef 47, i64 noundef %92) #7
  store ptr %93, ptr %14, align 8, !tbaa !13
  %94 = load ptr, ptr %14, align 8, !tbaa !13
  %95 = icmp ne ptr %94, null
  br i1 %95, label %98, label %96

96:                                               ; preds = %86
  %97 = load ptr, ptr %8, align 8, !tbaa !13
  store ptr %97, ptr %14, align 8, !tbaa !13
  br label %98

98:                                               ; preds = %96, %86
  %99 = load ptr, ptr %5, align 8, !tbaa !3
  %100 = load i32, ptr %10, align 4, !tbaa !7
  %101 = load ptr, ptr %9, align 8, !tbaa !13
  %102 = load ptr, ptr %14, align 8, !tbaa !13
  %103 = load ptr, ptr %9, align 8, !tbaa !13
  %104 = ptrtoint ptr %102 to i64
  %105 = ptrtoint ptr %103 to i64
  %106 = sub i64 %104, %105
  %107 = trunc i64 %106 to i32
  %108 = call i32 @fdt_subnode_offset_namelen(ptr noundef %99, i32 noundef %100, ptr noundef %101, i32 noundef %107)
  store i32 %108, ptr %10, align 4, !tbaa !7
  %109 = load i32, ptr %10, align 4, !tbaa !7
  %110 = icmp slt i32 %109, 0
  br i1 %110, label %111, label %113

111:                                              ; preds = %98
  %112 = load i32, ptr %10, align 4, !tbaa !7
  store i32 %112, ptr %4, align 4
  store i32 1, ptr %12, align 4
  br label %115

113:                                              ; preds = %98
  %114 = load ptr, ptr %14, align 8, !tbaa !13
  store ptr %114, ptr %9, align 8, !tbaa !13
  store i32 0, ptr %12, align 4
  br label %115

115:                                              ; preds = %113, %111, %83
  call void @llvm.lifetime.end.p0(i64 8, ptr %14) #6
  %116 = load i32, ptr %12, align 4
  switch i32 %116, label %120 [
    i32 0, label %117
  ]

117:                                              ; preds = %115
  br label %67, !llvm.loop !24

118:                                              ; preds = %67
  %119 = load i32, ptr %10, align 4, !tbaa !7
  store i32 %119, ptr %4, align 4
  store i32 1, ptr %12, align 4
  br label %120

120:                                              ; preds = %118, %115, %63, %26
  call void @llvm.lifetime.end.p0(i64 4, ptr %10) #6
  call void @llvm.lifetime.end.p0(i64 8, ptr %9) #6
  call void @llvm.lifetime.end.p0(i64 8, ptr %8) #6
  %121 = load i32, ptr %4, align 4
  ret i32 %121
}