; Function Attrs: nounwind uwtable
define i32 @fdt_path_offset_namelen(ptr noundef %0, ptr noundef %1, i32 noundef %2) local_unnamed_addr #0 {
  %4 = alloca i32, align 4
  %5 = sext i32 %2 to i64
  %6 = getelementptr inbounds i8, ptr %1, i64 %5
  %7 = tail call i32 @fdt_ro_probe_(ptr noundef %0) #9
  %8 = icmp sgt i32 %7, -1
  br i1 %8, label %9, label %.thread

9:                                                ; preds = %3
  %10 = load i8, ptr %1, align 1, !tbaa !3
  %.not = icmp eq i8 %10, 47
  br i1 %.not, label %70, label %11

11:                                               ; preds = %9
  %12 = tail call ptr @memchr(ptr noundef nonnull %1, i32 noundef 47, i64 noundef %5) #10
  %.not68 = icmp eq ptr %12, null
  %spec.select = select i1 %.not68, ptr %6, ptr %12
  %13 = tail call i32 @fdt_path_offset_namelen(ptr noundef %0, ptr noundef nonnull @.str.2, i32 noundef 8)
  %14 = icmp slt i32 %13, 0
  br i1 %14, label %.thread, label %15

15:                                               ; preds = %11
  %16 = ptrtoint ptr %spec.select to i64
  %17 = ptrtoint ptr %1 to i64
  %18 = sub i64 %16, %17
  %19 = trunc i64 %18 to i32
  call void @llvm.lifetime.start.p0(i64 4, ptr nonnull %4) #9
  %20 = call fastcc ptr @fdt_get_property_namelen_(ptr noundef %0, i32 noundef %13, ptr noundef nonnull readonly %1, i32 noundef %19, ptr noundef null, ptr noundef nonnull %4)
  %.not.i = icmp eq ptr %20, null
  br i1 %.not.i, label %fdt_get_alias_namelen.exit, label %21

21:                                               ; preds = %15
  %22 = getelementptr inbounds nuw i8, ptr %0, i64 20
  %23 = load i8, ptr %22, align 1, !tbaa !3
  %24 = zext i8 %23 to i32
  %25 = shl nuw i32 %24, 24
  %26 = getelementptr inbounds nuw i8, ptr %0, i64 21
  %27 = load i8, ptr %26, align 1, !tbaa !3
  %28 = zext i8 %27 to i32
  %29 = shl nuw nsw i32 %28, 16
  %30 = or disjoint i32 %29, %25
  %31 = getelementptr inbounds nuw i8, ptr %0, i64 22
  %32 = load i8, ptr %31, align 1, !tbaa !3
  %33 = zext i8 %32 to i32
  %34 = shl nuw nsw i32 %33, 8
  %35 = or disjoint i32 %30, %34
  %36 = getelementptr inbounds nuw i8, ptr %0, i64 23
  %37 = load i8, ptr %36, align 1, !tbaa !3
  %38 = zext i8 %37 to i32
  %39 = or disjoint i32 %35, %38
  %40 = icmp ult i32 %39, 16
  br i1 %40, label %41, label %64

41:                                               ; preds = %21
  %42 = load i32, ptr %4, align 4, !tbaa !6
  %43 = and i32 %42, 7
  %.not11.i = icmp eq i32 %43, 4
  br i1 %.not11.i, label %64, label %44

44:                                               ; preds = %41
  %45 = getelementptr inbounds nuw i8, ptr %20, i64 4
  %46 = load i8, ptr %45, align 1, !tbaa !3
  %47 = zext i8 %46 to i32
  %48 = shl nuw i32 %47, 24
  %49 = getelementptr inbounds nuw i8, ptr %20, i64 5
  %50 = load i8, ptr %49, align 1, !tbaa !3
  %51 = zext i8 %50 to i32
  %52 = shl nuw nsw i32 %51, 16
  %53 = or disjoint i32 %52, %48
  %54 = getelementptr inbounds nuw i8, ptr %20, i64 6
  %55 = load i8, ptr %54, align 1, !tbaa !3
  %56 = zext i8 %55 to i32
  %57 = shl nuw nsw i32 %56, 8
  %58 = or disjoint i32 %53, %57
  %59 = getelementptr inbounds nuw i8, ptr %20, i64 7
  %60 = load i8, ptr %59, align 1, !tbaa !3
  %61 = zext i8 %60 to i32
  %62 = or disjoint i32 %58, %61
  %63 = icmp ugt i32 %62, 7
  br i1 %63, label %65, label %64

64:                                               ; preds = %44, %41, %21
  br label %65

fdt_get_alias_namelen.exit:                       ; preds = %15
  call void @llvm.lifetime.end.p0(i64 4, ptr nonnull %4) #9
  br label %.thread

65:                                               ; preds = %44, %64
  %.sink = phi i64 [ 12, %64 ], [ 16, %44 ]
  %66 = getelementptr inbounds nuw i8, ptr %20, i64 %.sink
  call void @llvm.lifetime.end.p0(i64 4, ptr nonnull %4) #9
  %67 = call i64 @strlen(ptr noundef nonnull dereferenceable(1) %66) #10
  %68 = trunc i64 %67 to i32
  %69 = call i32 @fdt_path_offset_namelen(ptr noundef nonnull %0, ptr noundef nonnull %66, i32 noundef %68)
  br label %70

70:                                               ; preds = %65, %9
  %.054 = phi ptr [ %spec.select, %65 ], [ %1, %9 ]
  %.050 = phi i32 [ %69, %65 ], [ 0, %9 ]
  %71 = ptrtoint ptr %6 to i64
  br label %72

72:                                               ; preds = %79, %70
  %.256 = phi ptr [ %.054, %70 ], [ %spec.select71, %79 ]
  %.252 = phi i32 [ %.050, %70 ], [ %86, %79 ]
  %73 = icmp ult ptr %.256, %6
  br i1 %73, label %.preheader, label %.thread

.preheader:                                       ; preds = %72, %76
  %.357 = phi ptr [ %77, %76 ], [ %.256, %72 ]
  %74 = load i8, ptr %.357, align 1, !tbaa !3
  %75 = icmp eq i8 %74, 47
  br i1 %75, label %76, label %79

76:                                               ; preds = %.preheader
  %77 = getelementptr inbounds nuw i8, ptr %.357, i64 1
  %78 = icmp eq ptr %77, %6
  br i1 %78, label %.thread, label %.preheader, !llvm.loop !13

79:                                               ; preds = %.preheader
  %80 = ptrtoint ptr %.357 to i64
  %81 = sub i64 %71, %80
  %82 = call ptr @memchr(ptr noundef nonnull %.357, i32 noundef 47, i64 noundef %81) #10
  %.not70 = icmp eq ptr %82, null
  %spec.select71 = select i1 %.not70, ptr %6, ptr %82
  %83 = ptrtoint ptr %spec.select71 to i64
  %84 = sub i64 %83, %80
  %85 = trunc i64 %84 to i32
  %86 = call i32 @fdt_subnode_offset_namelen(ptr noundef %0, i32 noundef %.252, ptr noundef nonnull %.357, i32 noundef %85)
  %87 = icmp slt i32 %86, 0
  br i1 %87, label %.thread, label %72, !llvm.loop !14

.thread:                                          ; preds = %79, %72, %76, %11, %fdt_get_alias_namelen.exit, %3
  %.148 = phi i32 [ %7, %3 ], [ -5, %fdt_get_alias_namelen.exit ], [ -5, %11 ], [ %.252, %76 ], [ %86, %79 ], [ %.252, %72 ]
  ret i32 %.148
}